target datalayout = "e-m:e-p270:32:32-p271:32:32-p272:64:64-i64:64-i128:128-f80:128-n8:16:32:64-S128"
target triple = "x86_64-pc-linux-gnu"

%struct.Aig_Man_t_ = type { ptr, ptr, ptr, ptr, ptr, ptr, ptr, %struct.Aig_Obj_t_, i32, i32, i32, i32, i32, i32, [7 x i32], i32, ptr, i32, ptr, i32, ptr, i32, i32, i32, ptr, i32, i32, i32, i32, i32, ptr, ptr, i32, ptr, ptr, i32, ptr, ptr, i32, i32, i32, ptr, ptr, ptr, ptr, ptr, ptr, ptr, ptr, ptr, ptr, ptr, ptr, ptr, ptr, i32, ptr, ptr, ptr, ptr, i32, i64, i64, i64, ptr, ptr }
%struct.Aig_Obj_t_ = type { %union.anon, ptr, ptr, i64, i32, i32, %union.anon.0 }
%union.anon = type { ptr }
%union.anon.0 = type { ptr }

@.str.5 = private unnamed_addr constant [46 x i8] c"AIG cannot be written because it has no POs.\0A\00", align 1
@.str.6 = private unnamed_addr constant [3 x i8] c"wb\00", align 1
@stdout = external global ptr, align 8
@.str.7 = private unnamed_addr constant [53 x i8] c"Ioa_WriteAiger(): Cannot open the output file \22%s\22.\0A\00", align 1
@.str.8 = private unnamed_addr constant [57 x i8] c"\0AThis file was produced by the IOA package in ABC on %s\0A\00", align 1
@.str.9 = private unnamed_addr constant [49 x i8] c"For information about AIGER format, refer to %s\0A\00", align 1
@.str.10 = private unnamed_addr constant [24 x i8] c"http://fmv.jku.at/aiger\00", align 1

; Function Attrs: inlinehint nounwind uwtable
define internal i32 @Aig_ManCoNum(ptr noundef %0) #2 {
  %2 = alloca ptr, align 8
  store ptr %0, ptr %2, align 8, !tbaa !20
  %3 = load ptr, ptr %2, align 8, !tbaa !20
  %4 = getelementptr inbounds nuw %struct.Aig_Man_t_, ptr %3, i32 0, i32 14
  %5 = getelementptr inbounds [7 x i32], ptr %4, i64 0, i64 3
  %6 = load i32, ptr %5, align 4, !tbaa !8
  ret i32 %6
}

; Function Attrs: nounwind uwtable
define void @Ioa_WriteAigerBufferTest(ptr noundef %0, ptr noundef %1, i32 noundef %2, i32 noundef %3) #0 {
  %5 = alloca ptr, align 8
  %6 = alloca ptr, align 8
  %7 = alloca i32, align 4
  %8 = alloca i32, align 4
  %9 = alloca ptr, align 8
  %10 = alloca ptr, align 8
  %11 = alloca i32, align 4
  %12 = alloca i32, align 4
  store ptr %0, ptr %5, align 8, !tbaa !20
  store ptr %1, ptr %6, align 8, !tbaa !3
  store i32 %2, ptr %7, align 4, !tbaa !8
  store i32 %3, ptr %8, align 4, !tbaa !8
  call void @llvm.lifetime.start.p0(i64 8, ptr %9) #8
  call void @llvm.lifetime.start.p0(i64 8, ptr %10) #8
  call void @llvm.lifetime.start.p0(i64 4, ptr %11) #8
  %13 = load ptr, ptr %5, align 8, !tbaa !20
  %14 = call i32 @Aig_ManCoNum(ptr noundef %13)
  %15 = icmp eq i32 %14, 0
  br i1 %15, label %16, label %18

16:                                               ; preds = %4
  %17 = call i32 (ptr, ...) @printf(ptr noundef @.str.5)
  store i32 1, ptr %12, align 4
  br label %48

18:                                               ; preds = %4
  %19 = load ptr, ptr %6, align 8, !tbaa !3
  %20 = call noalias ptr @fopen(ptr noundef %19, ptr noundef @.str.6)
  store ptr %20, ptr %9, align 8, !tbaa !65
  %21 = load ptr, ptr %9, align 8, !tbaa !65
  %22 = icmp eq ptr %21, null
  br i1 %22, label %23, label %27

23:                                               ; preds = %18
  %24 = load ptr, ptr @stdout, align 8, !tbaa !65
  %25 = load ptr, ptr %6, align 8, !tbaa !3
  %26 = call i32 (ptr, ptr, ...) @fprintf(ptr noundef %24, ptr noundef @.str.7, ptr noundef %25) #8
  store i32 1, ptr %12, align 4
  br label %48

27:                                               ; preds = %18
  %28 = load ptr, ptr %5, align 8, !tbaa !20
  %29 = call ptr @Ioa_WriteAigerIntoMemory(ptr noundef %28, ptr noundef %11)
  store ptr %29, ptr %10, align 8, !tbaa !3
  %30 = load ptr, ptr %10, align 8, !tbaa !3
  %31 = load i32, ptr %11, align 4, !tbaa !8
  %32 = sext i32 %31 to i64
  %33 = load ptr, ptr %9, align 8, !tbaa !65
  %34 = call i64 @fwrite(ptr noundef %30, i64 noundef 1, i64 noundef %32, ptr noundef %33)
  %35 = load ptr, ptr %10, align 8, !tbaa !3
  %36 = icmp ne ptr %35, null
  br i1 %36, label %37, label %39

37:                                               ; preds = %27
  %38 = load ptr, ptr %10, align 8, !tbaa !3
  call void @free(ptr noundef %38) #8
  store ptr null, ptr %10, align 8, !tbaa !3
  br label %40

39:                                               ; preds = %27
  br label %40

40:                                               ; preds = %39, %37
  %41 = load ptr, ptr %9, align 8, !tbaa !65
  %42 = call ptr (...) @Ioa_TimeStamp()
  %43 = call i32 (ptr, ptr, ...) @fprintf(ptr noundef %41, ptr noundef @.str.8, ptr noundef %42) #8
  %44 = load ptr, ptr %9, align 8, !tbaa !65
  %45 = call i32 (ptr, ptr, ...) @fprintf(ptr noundef %44, ptr noundef @.str.9, ptr noundef @.str.10) #8
  %46 = load ptr, ptr %9, align 8, !tbaa !65
  %47 = call i32 @fclose(ptr noundef %46)
  store i32 0, ptr %12, align 4
  br label %48

48:                                               ; preds = %40, %23, %16
  call void @llvm.lifetime.end.p0(i64 4, ptr %11) #8
  call void @llvm.lifetime.end.p0(i64 8, ptr %10) #8
  call void @llvm.lifetime.end.p0(i64 8, ptr %9) #8
  %49 = load i32, ptr %12, align 4
  switch i32 %49, label %51 [
    i32 0, label %50
    i32 1, label %50
  ]

50:                                               ; preds = %48, %48
  ret void

51:                                               ; preds = %48
  unreachable
}