; Function Attrs: nounwind uwtable
define void @Ioa_WriteAigerBufferTest(ptr noundef readonly captures(none) %0, ptr noundef %1, i32 noundef %2, i32 noundef %3) local_unnamed_addr #2 {
  %5 = alloca i32, align 4
  call void @llvm.lifetime.start.p0(i64 4, ptr nonnull %5) #14
  %6 = getelementptr i8, ptr %0, i64 140
  %.val = load i32, ptr %6, align 4, !tbaa !16
  %7 = icmp eq i32 %.val, 0
  br i1 %7, label %8, label %9

8:                                                ; preds = %4
  %puts = tail call i32 @puts(ptr nonnull dereferenceable(1) @str.2)
  br label %26

9:                                                ; preds = %4
  %10 = tail call noalias ptr @fopen(ptr noundef %1, ptr noundef nonnull @.str.6)
  %11 = icmp eq ptr %10, null
  br i1 %11, label %12, label %15

12:                                               ; preds = %9
  %13 = load ptr, ptr @stdout, align 8, !tbaa !57
  %14 = tail call i32 (ptr, ptr, ...) @fprintf(ptr noundef %13, ptr noundef nonnull @.str.7, ptr noundef %1) #14
  br label %26

15:                                               ; preds = %9
  %16 = call ptr @Ioa_WriteAigerIntoMemory(ptr noundef nonnull %0, ptr noundef nonnull %5)
  %17 = load i32, ptr %5, align 4, !tbaa !16
  %18 = sext i32 %17 to i64
  %19 = tail call i64 @fwrite(ptr noundef %16, i64 noundef 1, i64 noundef %18, ptr noundef nonnull %10)
  %.not = icmp eq ptr %16, null
  br i1 %.not, label %21, label %20

20:                                               ; preds = %15
  tail call void @free(ptr noundef nonnull %16) #14
  br label %21

21:                                               ; preds = %15, %20
  %22 = tail call ptr (...) @Ioa_TimeStamp() #14
  %23 = tail call i32 (ptr, ptr, ...) @fprintf(ptr noundef nonnull %10, ptr noundef nonnull @.str.8, ptr noundef %22) #14
  %24 = tail call i32 (ptr, ptr, ...) @fprintf(ptr noundef nonnull %10, ptr noundef nonnull @.str.9, ptr noundef nonnull @.str.10) #14
  %25 = tail call i32 @fclose(ptr noundef nonnull %10)
  br label %26

26:                                               ; preds = %21, %12, %8
  call void @llvm.lifetime.end.p0(i64 4, ptr nonnull %5) #14
  ret void
}